(lp0
(lp1
(lp2
a(lp3
(dp4
S'is'
p5
F10.0
sS'cve_id'
p6
VCVE-2010-1165
p7
sS'es'
p8
F8.0
sS'bs'
p9
F9.0
sa(dp10
g5
F2.9
sg6
VCVE-2017-16865
p11
sg8
F6.8
sg9
F3.5
saa(lp12
(dp13
g5
F2.9
sg6
VCVE-2010-1164
p14
sg8
F8.6
sg9
F4.3
sag4
a(dp15
g5
F4.9
sg6
VCVE-2012-2926
p16
sg8
F10.0
sg9
F6.4
sa(dp17
g5
F2.9
sg6
VCVE-2017-14594
p18
sg8
F8.6
sg9
F4.3
sa(dp19
g5
F2.9
sg6
VCVE-2017-16862
p20
sg8
F8.6
sg9
F4.3
sa(dp21
g5
F2.9
sg6
VCVE-2017-16863
p22
sg8
F8.6
sg9
F4.3
sa(dp23
g5
F2.9
sg6
VCVE-2017-16864
p24
sg8
F8.6
sg9
F4.3
sag10
a(dp25
g5
F2.9
sg6
VCVE-2017-18033
p26
sg8
F8.6
sg9
F4.3
saaa(lp27
(lp28
(dp29
g5
F6.4
sg6
VCVE-2016-5424
p30
sg8
F3.9
sg9
F4.6
sa(dp31
g5
F10.0
sg6
VCVE-2017-12172
p32
sg8
F3.9
sg9
F7.2
saa(lp33
(dp34
g5
F10.0
sg6
VCVE-2016-0766
p35
sg8
F8.0
sg9
F9.0
sa(dp36
g5
F6.4
sg6
VCVE-2016-5423
p37
sg8
F8.0
sg9
F6.5
sag29
ag31
a(dp38
g5
F4.9
sg6
VCVE-2017-15098
p39
sg8
F8.0
sg9
F5.5
sa(dp40
g5
F2.9
sg6
VCVE-2017-15099
p41
sg8
F8.0
sg9
F4.0
sa(dp42
g5
F2.9
sg6
VCVE-2017-7547
p43
sg8
F8.0
sg9
F4.0
sa(dp44
g5
F2.9
sg6
VCVE-2017-7548
p45
sg8
F8.0
sg9
F4.0
sa(dp46
g5
F6.4
sg6
VCVE-2018-1058
p47
sg8
F8.0
sg9
F6.5
saa(lp48
g34
a(dp49
g5
F2.9
sg6
VCVE-2016-0773
p50
sg8
F10.0
sg9
F5.0
sa(dp51
g5
F2.9
sg6
VCVE-2016-2193
p52
sg8
F10.0
sg9
F5.0
sa(dp53
g5
F7.8
sg6
VCVE-2016-3065
p54
sg8
F10.0
sg9
F8.5
sag36
ag29
ag31
ag38
ag40
a(dp55
g5
F2.9
sg6
VCVE-2017-7484
p56
sg8
F10.0
sg9
F5.0
sa(dp57
g5
F2.9
sg6
VCVE-2017-7485
p58
sg8
F8.6
sg9
F4.3
sa(dp59
g5
F2.9
sg6
VCVE-2017-7486
p60
sg8
F10.0
sg9
F5.0
sa(dp61
g5
F6.4
sg6
VCVE-2017-7546
p62
sg8
F10.0
sg9
F7.5
sag42
ag44
ag46
aaa(lp63
(lp64
a(lp65
(dp66
g5
F10.0
sg6
VCVE-2010-1256
p67
sg8
F6.8
sg9
F8.5
saa(lp68
g66
a(dp69
g5
F2.9
sg6
VCVE-2010-1899
p70
sg8
F8.6
sg9
F4.3
sa(dp71
g5
F10.0
sg6
VCVE-2017-7269
p72
sg8
F10.0
sg9
F10.0
saaa(lp73
(lp74
(dp75
g5
F2.9
sg6
VCVE-2010-1157
p76
sg8
F4.9
sg9
F2.6
sa(dp77
g5
F2.9
sg6
VCVE-2010-3718
p78
sg8
F1.9
sg9
F1.2
sa(dp79
g5
F2.9
sg6
VCVE-2011-2204
p80
sg8
F3.4
sg9
F1.9
sa(dp81
g5
F6.4
sg6
VCVE-2011-2526
p82
sg8
F3.4
sg9
F4.4
sa(dp83
g5
F2.9
sg6
VCVE-2012-4534
p84
sg8
F4.9
sg9
F2.6
saa(lp85
g75
ag77
ag79
ag81
ag83
a(dp86
g5
F2.9
sg6
VCVE-2015-5174
p87
sg8
F8.0
sg9
F4.0
sa(dp88
g5
F2.9
sg6
VCVE-2016-0706
p89
sg8
F8.0
sg9
F4.0
sa(dp90
g5
F6.4
sg6
VCVE-2016-0714
p91
sg8
F8.0
sg9
F6.5
saa(lp92
g75
a(dp93
g5
F4.9
sg6
VCVE-2010-2227
p94
sg8
F10.0
sg9
F6.4
sag77
a(dp95
g5
F4.9
sg6
VCVE-2010-4312
p96
sg8
F10.0
sg9
F6.4
sa(dp97
g5
F2.9
sg6
VCVE-2011-0013
p98
sg8
F8.6
sg9
F4.3
sa(dp99
g5
F2.9
sg6
VCVE-2011-0534
p100
sg8
F10.0
sg9
F5.0
sa(dp101
g5
F2.9
sg6
VCVE-2011-1184
p102
sg8
F10.0
sg9
F5.0
sag79
ag81
a(dp103
g5
F6.4
sg6
VCVE-2011-3190
p104
sg8
F10.0
sg9
F7.5
sa(dp105
g5
F2.9
sg6
VCVE-2011-4858
p106
sg8
F10.0
sg9
F5.0
sa(dp107
g5
F2.9
sg6
VCVE-2011-5062
p108
sg8
F10.0
sg9
F5.0
sa(dp109
g5
F2.9
sg6
VCVE-2011-5063
p110
sg8
F8.6
sg9
F4.3
sa(dp111
g5
F2.9
sg6
VCVE-2011-5064
p112
sg8
F8.6
sg9
F4.3
sa(dp113
g5
F2.9
sg6
VCVE-2012-0022
p114
sg8
F10.0
sg9
F5.0
sa(dp115
g5
F2.9
sg6
VCVE-2012-2733
p116
sg8
F10.0
sg9
F5.0
sa(dp117
g5
F2.9
sg6
VCVE-2012-3544
p118
sg8
F10.0
sg9
F5.0
sa(dp119
g5
F2.9
sg6
VCVE-2012-3546
p120
sg8
F8.6
sg9
F4.3
sa(dp121
g5
F2.9
sg6
VCVE-2012-4431
p122
sg8
F8.6
sg9
F4.3
sag83
a(dp123
g5
F2.9
sg6
VCVE-2012-5568
p124
sg8
F10.0
sg9
F5.0
sa(dp125
g5
F2.9
sg6
VCVE-2012-5885
p126
sg8
F10.0
sg9
F5.0
sa(dp127
g5
F2.9
sg6
VCVE-2012-5886
p128
sg8
F10.0
sg9
F5.0
sa(dp129
g5
F2.9
sg6
VCVE-2012-5887
p130
sg8
F10.0
sg9
F5.0
sa(dp131
g5
F4.9
sg6
VCVE-2013-4286
p132
sg8
F8.6
sg9
F5.8
sa(dp133
g5
F2.9
sg6
VCVE-2013-4322
p134
sg8
F8.6
sg9
F4.3
sa(dp135
g5
F2.9
sg6
VCVE-2013-4590
p136
sg8
F8.6
sg9
F4.3
sa(dp137
g5
F2.9
sg6
VCVE-2014-0075
p138
sg8
F10.0
sg9
F5.0
sa(dp139
g5
F2.9
sg6
VCVE-2014-0096
p140
sg8
F8.6
sg9
F4.3
sa(dp141
g5
F2.9
sg6
VCVE-2014-0099
p142
sg8
F8.6
sg9
F4.3
sa(dp143
g5
F2.9
sg6
VCVE-2014-0119
p144
sg8
F8.6
sg9
F4.3
sa(dp145
g5
F4.9
sg6
VCVE-2014-0227
p146
sg8
F10.0
sg9
F6.4
sa(dp147
g5
F6.9
sg6
VCVE-2014-0230
p148
sg8
F10.0
sg9
F7.8
sa(dp149
g5
F2.9
sg6
VCVE-2014-7810
p150
sg8
F10.0
sg9
F5.0
sag86
a(dp151
g5
F2.9
sg6
VCVE-2015-5345
p152
sg8
F10.0
sg9
F5.0
sag88
ag90
a(dp153
g5
F2.9
sg6
VCVE-2016-0762
p154
sg8
F8.6
sg9
F4.3
sa(dp155
g5
F2.9
sg6
VCVE-2016-5018
p156
sg8
F10.0
sg9
F5.0
sa(dp157
g5
F2.9
sg6
VCVE-2016-6794
p158
sg8
F10.0
sg9
F5.0
sa(dp159
g5
F2.9
sg6
VCVE-2016-6796
p160
sg8
F10.0
sg9
F5.0
sa(dp161
g5
F2.9
sg6
VCVE-2016-6797
p162
sg8
F10.0
sg9
F5.0
sa(dp163
g5
F6.4
sg6
VCVE-2016-6816
p164
sg8
F8.6
sg9
F6.8
sa(dp165
g5
F6.4
sg6
VCVE-2016-8735
p166
sg8
F10.0
sg9
F7.5
sa(dp167
g5
F2.9
sg6
VCVE-2017-5647
p168
sg8
F10.0
sg9
F5.0
saaa(lp169
(lp170
(dp171
g5
F2.9
sg6
VCVE-2010-3094
p172
sg8
F3.9
sg9
F2.1
sa(dp173
g5
F2.9
sg6
VCVE-2013-0244
p174
sg8
F4.9
sg9
F2.6
sa(dp175
g5
F2.9
sg6
VCVE-2013-0245
p176
sg8
F3.9
sg9
F2.1
sa(dp177
g5
F6.4
sg6
VCVE-2013-6385
p178
sg8
F4.9
sg9
F5.1
sa(dp179
g5
F2.9
sg6
VCVE-2014-5021
p180
sg8
F3.9
sg9
F2.1
saa(lp181
(dp182
g5
F4.9
sg6
VCVE-2010-3092
p183
sg8
F8.0
sg9
F5.5
sa(dp184
g5
F2.9
sg6
VCVE-2010-3093
p185
sg8
F6.8
sg9
F3.5
sag171
a(dp186
g5
F6.4
sg6
VCVE-2012-5653
p187
sg8
F6.8
sg9
F6.0
sag173
ag175
ag177
ag179
a(dp188
g5
F2.9
sg6
VCVE-2015-2559
p189
sg8
F6.8
sg9
F3.5
sa(dp190
g5
F10.0
sg6
VCVE-2016-3168
p191
sg8
F6.8
sg9
F8.5
saa(lp192
(dp193
g5
F2.9
sg6
VCVE-2010-3091
p194
sg8
F10.0
sg9
F5.0
sag182
ag184
ag171
a(dp195
g5
F2.9
sg6
VCVE-2010-3685
p196
sg8
F10.0
sg9
F5.0
sa(dp197
g5
F2.9
sg6
VCVE-2010-3686
p198
sg8
F10.0
sg9
F5.0
sa(dp199
g5
F6.4
sg6
VCVE-2012-0825
p200
sg8
F8.6
sg9
F6.8
sa(dp201
g5
F6.4
sg6
VCVE-2012-0826
p202
sg8
F8.6
sg9
F6.8
sa(dp203
g5
F2.9
sg6
VCVE-2012-2922
p204
sg8
F10.0
sg9
F5.0
sa(dp205
g5
F2.9
sg6
VCVE-2012-5651
p206
sg8
F10.0
sg9
F5.0
sa(dp207
g5
F2.9
sg6
VCVE-2012-5652
p208
sg8
F10.0
sg9
F5.0
sag186
ag173
ag175
ag177
a(dp209
g5
F6.4
sg6
VCVE-2013-6386
p210
sg8
F8.6
sg9
F6.8
sa(dp211
g5
F6.4
sg6
VCVE-2014-1475
p212
sg8
F10.0
sg9
F7.5
sa(dp213
g5
F2.9
sg6
VCVE-2014-2983
p214
sg8
F8.6
sg9
F4.3
sa(dp215
g5
F2.9
sg6
VCVE-2014-5019
p216
sg8
F10.0
sg9
F5.0
sag179
a(dp217
g5
F2.9
sg6
VCVE-2014-5265
p218
sg8
F10.0
sg9
F5.0
sa(dp219
g5
F2.9
sg6
VCVE-2014-5266
p220
sg8
F10.0
sg9
F5.0
sa(dp221
g5
F6.4
sg6
VCVE-2014-5267
p222
sg8
F8.6
sg9
F6.8
sag188
a(dp223
g5
F4.9
sg6
VCVE-2015-2749
p224
sg8
F8.6
sg9
F5.8
sa(dp225
g5
F4.9
sg6
VCVE-2015-2750
p226
sg8
F8.6
sg9
F5.8
sa(dp227
g5
F2.9
sg6
VCVE-2015-3234
p228
sg8
F8.6
sg9
F4.3
sa(dp229
g5
F2.9
sg6
VCVE-2015-6658
p230
sg8
F8.6
sg9
F4.3
sa(dp231
g5
F6.4
sg6
VCVE-2015-6660
p232
sg8
F8.6
sg9
F6.8
sa(dp233
g5
F2.9
sg6
VCVE-2015-6661
p234
sg8
F10.0
sg9
F5.0
sa(dp235
g5
F2.9
sg6
VCVE-2016-3163
p236
sg8
F10.0
sg9
F5.0
sa(dp237
g5
F4.9
sg6
VCVE-2016-3164
p238
sg8
F8.6
sg9
F5.8
sa(dp239
g5
F2.9
sg6
VCVE-2016-3165
p240
sg8
F10.0
sg9
F5.0
sa(dp241
g5
F2.9
sg6
VCVE-2016-3166
p242
sg8
F8.6
sg9
F4.3
sa(dp243
g5
F4.9
sg6
VCVE-2016-3167
p244
sg8
F10.0
sg9
F6.4
sag190
a(dp245
g5
F6.4
sg6
VCVE-2016-3169
p246
sg8
F8.6
sg9
F6.8
sa(dp247
g5
F6.4
sg6
VCVE-2016-3171
p248
sg8
F8.6
sg9
F6.8
saaa(lp249
(lp250
(dp251
g5
F2.9
sg6
VCVE-2016-6494
p252
sg8
F3.9
sg9
F2.1
saa(lp253
(dp254
g5
F6.4
sg6
VCVE-2013-3969
p255
sg8
F8.0
sg9
F6.5
sa(dp256
g5
F6.4
sg6
VCVE-2013-4650
p257
sg8
F8.0
sg9
F6.5
sag251
aa(lp258
(dp259
g5
F2.9
sg6
VCVE-2013-2132
p260
sg8
F8.6
sg9
F4.3
sag254
ag256
ag251
aaa(lp261
(lp262
(dp263
g5
F2.9
sg6
VCVE-2015-3455
p264
sg8
F4.9
sg9
F2.6
saa(lp265
g263
aa(lp266
(dp267
g5
F6.4
sg6
VCVE-2011-3205
p268
sg8
F8.6
sg9
F6.8
sa(dp269
g5
F2.9
sg6
VCVE-2012-5643
p270
sg8
F10.0
sg9
F5.0
sa(dp271
g5
F2.9
sg6
VCVE-2013-0189
p272
sg8
F10.0
sg9
F5.0
sa(dp273
g5
F6.9
sg6
VCVE-2013-1839
p274
sg8
F10.0
sg9
F7.8
sa(dp275
g5
F6.4
sg6
VCVE-2013-4115
p276
sg8
F10.0
sg9
F7.5
sa(dp277
g5
F2.9
sg6
VCVE-2013-4123
p278
sg8
F10.0
sg9
F5.0
sa(dp279
g5
F2.9
sg6
VCVE-2014-0128
p280
sg8
F10.0
sg9
F5.0
sa(dp281
g5
F2.9
sg6
VCVE-2014-3609
p282
sg8
F10.0
sg9
F5.0
sa(dp283
g5
F6.4
sg6
VCVE-2014-6270
p284
sg8
F8.6
sg9
F6.8
sa(dp285
g5
F4.9
sg6
VCVE-2014-7141
p286
sg8
F10.0
sg9
F6.4
sa(dp287
g5
F4.9
sg6
VCVE-2014-7142
p288
sg8
F10.0
sg9
F6.4
sag263
a(dp289
g5
F2.9
sg6
VCVE-2016-10002
p290
sg8
F10.0
sg9
F5.0
sa(dp291
g5
F2.9
sg6
VCVE-2016-2569
p292
sg8
F10.0
sg9
F5.0
sa(dp293
g5
F2.9
sg6
VCVE-2016-2570
p294
sg8
F10.0
sg9
F5.0
sa(dp295
g5
F2.9
sg6
VCVE-2016-2571
p296
sg8
F10.0
sg9
F5.0
sa(dp297
g5
F2.9
sg6
VCVE-2016-3948
p298
sg8
F10.0
sg9
F5.0
sa(dp299
g5
F6.4
sg6
VCVE-2016-4051
p300
sg8
F8.6
sg9
F6.8
sa(dp301
g5
F6.4
sg6
VCVE-2016-4052
p302
sg8
F8.6
sg9
F6.8
sa(dp303
g5
F2.9
sg6
VCVE-2016-4053
p304
sg8
F8.6
sg9
F4.3
sa(dp305
g5
F6.4
sg6
VCVE-2016-4054
p306
sg8
F8.6
sg9
F6.8
sa(dp307
g5
F2.9
sg6
VCVE-2016-4555
p308
sg8
F10.0
sg9
F5.0
sa(dp309
g5
F2.9
sg6
VCVE-2016-4556
p310
sg8
F10.0
sg9
F5.0
sa(dp311
g5
F2.9
sg6
VCVE-2018-1000024
p312
sg8
F10.0
sg9
F5.0
sa(dp313
g5
F2.9
sg6
VCVE-2018-1000027
p314
sg8
F10.0
sg9
F5.0
saaa(lp315
(lp316
(dp317
g5
F4.9
sg6
VCVE-2013-2192
p318
sg8
F3.2
sg9
F3.2
saa(lp319
g317
a(dp320
g5
F2.9
sg6
VCVE-2014-0229
p321
sg8
F8.0
sg9
F4.0
sa(dp322
g5
F2.9
sg6
VCVE-2017-15713
p323
sg8
F8.0
sg9
F4.0
saa(lp324
(dp325
g5
F6.4
sg6
VCVE-2012-3376
p326
sg8
F10.0
sg9
F7.5
sa(dp327
g5
F6.4
sg6
VCVE-2012-4449
p328
sg8
F10.0
sg9
F7.5
sag317
ag320
a(dp329
g5
F2.9
sg6
VCVE-2014-3627
p330
sg8
F10.0
sg9
F5.0
sag322
aaa(lp331
(lp332
(dp333
g5
F2.9
sg6
VCVE-2012-0800
p334
sg8
F3.9
sg9
F2.1
sa(dp335
g5
F6.4
sg6
VCVE-2013-3630
p336
sg8
F3.9
sg9
F4.6
saa(lp337
(dp338
g5
F6.4
sg6
VCVE-2011-4295
p339
sg8
F8.0
sg9
F6.5
sa(dp340
g5
F4.9
sg6
VCVE-2011-4296
p341
sg8
F8.0
sg9
F5.5
sa(dp342
g5
F2.9
sg6
VCVE-2011-4304
p343
sg8
F8.0
sg9
F4.0
sa(dp344
g5
F2.9
sg6
VCVE-2011-4308
p345
sg8
F8.0
sg9
F4.0
sa(dp346
g5
F2.9
sg6
VCVE-2011-4581
p347
sg8
F8.0
sg9
F4.0
sa(dp348
g5
F4.9
sg6
VCVE-2011-4582
p349
sg8
F6.8
sg9
F4.9
sa(dp350
g5
F6.4
sg6
VCVE-2011-4583
p351
sg8
F8.0
sg9
F6.5
sa(dp352
g5
F2.9
sg6
VCVE-2011-4584
p353
sg8
F8.0
sg9
F4.0
sa(dp354
g5
F4.9
sg6
VCVE-2011-4589
p355
sg8
F8.0
sg9
F5.5
sa(dp356
g5
F2.9
sg6
VCVE-2011-4590
p357
sg8
F8.0
sg9
F4.0
sa(dp358
g5
F2.9
sg6
VCVE-2011-4593
p359
sg8
F8.0
sg9
F4.0
sa(dp360
g5
F6.4
sg6
VCVE-2012-0795
p361
sg8
F8.0
sg9
F6.5
sa(dp362
g5
F2.9
sg6
VCVE-2012-0796
p363
sg8
F8.0
sg9
F4.0
sa(dp364
g5
F4.9
sg6
VCVE-2012-0797
p365
sg8
F8.0
sg9
F5.5
sa(dp366
g5
F4.9
sg6
VCVE-2012-0798
p367
sg8
F8.0
sg9
F5.5
sag333
a(dp368
g5
F2.9
sg6
VCVE-2012-2353
p369
sg8
F8.0
sg9
F4.0
sa(dp370
g5
F2.9
sg6
VCVE-2012-2354
p371
sg8
F8.0
sg9
F4.0
sa(dp372
g5
F2.9
sg6
VCVE-2012-2355
p373
sg8
F8.0
sg9
F4.0
sa(dp374
g5
F2.9
sg6
VCVE-2012-2356
p375
sg8
F8.0
sg9
F4.0
sa(dp376
g5
F4.9
sg6
VCVE-2012-2358
p377
sg8
F8.0
sg9
F5.5
sa(dp378
g5
F6.4
sg6
VCVE-2012-2359
p379
sg8
F8.0
sg9
F6.5
sa(dp380
g5
F2.9
sg6
VCVE-2012-2360
p381
sg8
F6.8
sg9
F3.5
sa(dp382
g5
F2.9
sg6
VCVE-2012-2361
p383
sg8
F6.8
sg9
F3.5
sa(dp384
g5
F2.9
sg6
VCVE-2012-2364
p385
sg8
F6.8
sg9
F3.5
sa(dp386
g5
F2.9
sg6
VCVE-2012-2365
p387
sg8
F6.8
sg9
F3.5
sa(dp388
g5
F4.9
sg6
VCVE-2012-2366
p389
sg8
F8.0
sg9
F5.5
sa(dp390
g5
F2.9
sg6
VCVE-2012-2367
p391
sg8
F8.0
sg9
F4.0
sa(dp392
g5
F2.9
sg6
VCVE-2012-3390
p393
sg8
F6.8
sg9
F3.5
sa(dp394
g5
F2.9
sg6
VCVE-2012-3391
p395
sg8
F8.0
sg9
F4.0
sa(dp396
g5
F4.9
sg6
VCVE-2012-3392
p397
sg8
F8.0
sg9
F5.5
sa(dp398
g5
F2.9
sg6
VCVE-2012-3393
p399
sg8
F6.8
sg9
F3.5
sa(dp400
g5
F6.4
sg6
VCVE-2012-3395
p401
sg8
F8.0
sg9
F6.5
sa(dp402
g5
F2.9
sg6
VCVE-2012-3396
p403
sg8
F6.8
sg9
F3.5
sa(dp404
g5
F2.9
sg6
VCVE-2012-3397
p405
sg8
F8.0
sg9
F4.0
sa(dp406
g5
F2.9
sg6
VCVE-2012-3398
p407
sg8
F8.0
sg9
F4.0
sa(dp408
g5
F4.9
sg6
VCVE-2012-4402
p409
sg8
F6.8
sg9
F4.9
sa(dp410
g5
F4.9
sg6
VCVE-2012-4408
p411
sg8
F8.0
sg9
F5.5
sa(dp412
g5
F6.4
sg6
VCVE-2012-5471
p413
sg8
F8.0
sg9
F6.5
sa(dp414
g5
F2.9
sg6
VCVE-2012-5473
p415
sg8
F8.0
sg9
F4.0
sa(dp416
g5
F6.4
sg6
VCVE-2012-5479
p417
sg8
F8.0
sg9
F6.5
sa(dp418
g5
F2.9
sg6
VCVE-2012-6098
p419
sg8
F8.0
sg9
F4.0
sa(dp420
g5
F2.9
sg6
VCVE-2012-6099
p421
sg8
F8.0
sg9
F4.0
sa(dp422
g5
F2.9
sg6
VCVE-2013-1832
p423
sg8
F8.0
sg9
F4.0
sa(dp424
g5
F2.9
sg6
VCVE-2013-1833
p425
sg8
F6.8
sg9
F3.5
sa(dp426
g5
F2.9
sg6
VCVE-2013-1834
p427
sg8
F8.0
sg9
F4.0
sa(dp428
g5
F2.9
sg6
VCVE-2013-1835
p429
sg8
F6.8
sg9
F3.5
sa(dp430
g5
F6.4
sg6
VCVE-2013-1836
p431
sg8
F8.0
sg9
F6.5
sa(dp432
g5
F2.9
sg6
VCVE-2013-2242
p433
sg8
F8.0
sg9
F4.0
sa(dp434
g5
F2.9
sg6
VCVE-2013-2243
p435
sg8
F8.0
sg9
F4.0
sa(dp436
g5
F2.9
sg6
VCVE-2013-2245
p437
sg8
F8.0
sg9
F4.0
sa(dp438
g5
F2.9
sg6
VCVE-2013-2246
p439
sg8
F8.0
sg9
F4.0
sag335
a(dp440
g5
F2.9
sg6
VCVE-2013-4523
p441
sg8
F6.8
sg9
F3.5
sa(dp442
g5
F6.9
sg6
VCVE-2013-4524
p443
sg8
F8.0
sg9
F6.8
sa(dp444
g5
F2.9
sg6
VCVE-2013-4525
p445
sg8
F6.8
sg9
F3.5
sa(dp446
g5
F4.9
sg6
VCVE-2014-0009
p447
sg8
F8.0
sg9
F5.5
sa(dp448
g5
F4.9
sg6
VCVE-2014-0122
p449
sg8
F6.8
sg9
F4.9
sa(dp450
g5
F4.9
sg6
VCVE-2014-0123
p451
sg8
F6.8
sg9
F4.9
sa(dp452
g5
F2.9
sg6
VCVE-2014-0124
p453
sg8
F8.0
sg9
F4.0
sa(dp454
g5
F4.9
sg6
VCVE-2014-0127
p455
sg8
F6.8
sg9
F4.9
sa(dp456
g5
F2.9
sg6
VCVE-2014-0129
p457
sg8
F8.0
sg9
F4.0
sa(dp458
g5
F2.9
sg6
VCVE-2014-0215
p459
sg8
F8.0
sg9
F4.0
sa(dp460
g5
F2.9
sg6
VCVE-2014-2571
p461
sg8
F6.8
sg9
F3.5
sa(dp462
g5
F2.9
sg6
VCVE-2014-3617
p463
sg8
F8.0
sg9
F4.0
saa(lp464
(dp465
g5
F2.9
sg6
VCVE-2011-4203
p466
sg8
F10.0
sg9
F5.0
sa(dp467
g5
F4.9
sg6
VCVE-2011-4293
p468
sg8
F10.0
sg9
F6.4
sa(dp469
g5
F4.9
sg6
VCVE-2011-4294
p470
sg8
F8.6
sg9
F5.8
sag338
ag340
a(dp471
g5
F4.9
sg6
VCVE-2011-4297
p472
sg8
F10.0
sg9
F6.4
sa(dp473
g5
F6.4
sg6
VCVE-2011-4298
p474
sg8
F8.6
sg9
F6.8
sa(dp475
g5
F2.9
sg6
VCVE-2011-4299
p476
sg8
F8.6
sg9
F4.3
sa(dp477
g5
F2.9
sg6
VCVE-2011-4300
p478
sg8
F10.0
sg9
F5.0
sa(dp479
g5
F2.9
sg6
VCVE-2011-4301
p480
sg8
F10.0
sg9
F5.0
sa(dp481
g5
F6.4
sg6
VCVE-2011-4302
p482
sg8
F8.6
sg9
F6.8
sa(dp483
g5
F2.9
sg6
VCVE-2011-4303
p484
sg8
F8.6
sg9
F4.3
sag342
a(dp485
g5
F2.9
sg6
VCVE-2011-4307
p486
sg8
F8.6
sg9
F4.3
sag344
a(dp487
g5
F2.9
sg6
VCVE-2011-4309
p488
sg8
F10.0
sg9
F5.0
sag346
ag348
ag350
ag352
a(dp489
g5
F2.9
sg6
VCVE-2011-4586
p490
sg8
F10.0
sg9
F5.0
sa(dp491
g5
F6.4
sg6
VCVE-2011-4587
p492
sg8
F8.6
sg9
F6.8
sag354
ag356
a(dp493
g5
F2.9
sg6
VCVE-2011-4591
p494
sg8
F8.6
sg9
F4.3
sa(dp495
g5
F2.9
sg6
VCVE-2011-4592
p496
sg8
F10.0
sg9
F5.0
sag358
a(dp497
g5
F2.9
sg6
VCVE-2012-0793
p498
sg8
F10.0
sg9
F5.0
sa(dp499
g5
F2.9
sg6
VCVE-2012-0794
p500
sg8
F10.0
sg9
F5.0
sag360
ag362
ag364
ag366
a(dp501
g5
F2.9
sg6
VCVE-2012-0799
p502
sg8
F8.6
sg9
F4.3
sag333
a(dp503
g5
F6.4
sg6
VCVE-2012-0801
p504
sg8
F10.0
sg9
F7.5
sag368
ag370
ag372
ag374
a(dp505
g5
F2.9
sg6
VCVE-2012-2357
p506
sg8
F10.0
sg9
F5.0
sag376
ag378
ag380
ag382
ag384
ag386
ag388
ag390
ag392
ag394
ag396
ag398
a(dp507
g5
F2.9
sg6
VCVE-2012-3394
p508
sg8
F10.0
sg9
F5.0
sag400
ag402
ag404
ag406
ag408
a(dp509
g5
F2.9
sg6
VCVE-2012-4407
p510
sg8
F10.0
sg9
F5.0
sag410
ag412
ag414
ag416
a(dp511
g5
F4.9
sg6
VCVE-2012-5480
p512
sg8
F10.0
sg9
F6.4
sag418
ag420
a(dp513
g5
F2.9
sg6
VCVE-2012-6105
p514
sg8
F10.0
sg9
F5.0
sa(dp515
g5
F2.9
sg6
VCVE-2012-6112
p516
sg8
F10.0
sg9
F5.0
sa(dp517
g5
F2.9
sg6
VCVE-2013-1830
p518
sg8
F10.0
sg9
F5.0
sa(dp519
g5
F2.9
sg6
VCVE-2013-1831
p520
sg8
F10.0
sg9
F5.0
sag422
ag424
ag426
ag428
ag430
a(dp521
g5
F2.9
sg6
VCVE-2013-2081
p522
sg8
F8.6
sg9
F4.3
sa(dp523
g5
F2.9
sg6
VCVE-2013-2082
p524
sg8
F10.0
sg9
F5.0
sa(dp525
g5
F2.9
sg6
VCVE-2013-2083
p526
sg8
F10.0
sg9
F5.0
sag432
ag434
ag436
ag438
ag335
a(dp527
g5
F2.9
sg6
VCVE-2013-4522
p528
sg8
F10.0
sg9
F5.0
sag440
ag442
ag444
a(dp529
g5
F2.9
sg6
VCVE-2013-4938
p530
sg8
F8.6
sg9
F4.3
sa(dp531
g5
F2.9
sg6
VCVE-2013-4939
p532
sg8
F8.6
sg9
F4.3
sa(dp533
g5
F2.9
sg6
VCVE-2013-4940
p534
sg8
F8.6
sg9
F4.3
sa(dp535
g5
F2.9
sg6
VCVE-2013-4941
p536
sg8
F8.6
sg9
F4.3
sa(dp537
g5
F2.9
sg6
VCVE-2013-4942
p538
sg8
F8.6
sg9
F4.3
sa(dp539
g5
F2.9
sg6
VCVE-2013-7341
p540
sg8
F8.6
sg9
F4.3
sag446
a(dp541
g5
F6.4
sg6
VCVE-2014-0010
p542
sg8
F8.6
sg9
F6.8
sag448
ag450
ag452
a(dp543
g5
F4.9
sg6
VCVE-2014-0125
p544
sg8
F8.6
sg9
F5.8
sa(dp545
g5
F6.4
sg6
VCVE-2014-0126
p546
sg8
F8.6
sg9
F6.8
sag454
ag456
a(dp547
g5
F6.4
sg6
VCVE-2014-0213
p548
sg8
F8.6
sg9
F6.8
sa(dp549
g5
F6.4
sg6
VCVE-2014-0214
p550
sg8
F8.6
sg9
F6.8
sag458
a(dp551
g5
F2.9
sg6
VCVE-2014-0216
p552
sg8
F10.0
sg9
F5.0
sa(dp553
g5
F2.9
sg6
VCVE-2014-0218
p554
sg8
F8.6
sg9
F4.3
sag460
ag462
aaa(lp555
(lp556
(dp557
g5
F6.4
sg6
VCVE-2014-0472
p558
sg8
F4.9
sg9
F5.1
saa(lp559
g557
a(dp560
g5
F6.4
sg6
VCVE-2014-0482
p561
sg8
F6.8
sg9
F6.0
sa(dp562
g5
F2.9
sg6
VCVE-2014-0483
p563
sg8
F6.8
sg9
F3.5
saa(lp564
g557
a(dp565
g5
F2.9
sg6
VCVE-2014-0473
p566
sg8
F10.0
sg9
F5.0
sa(dp567
g5
F10.0
sg6
VCVE-2014-0474
p568
sg8
F10.0
sg9
F10.0
sa(dp569
g5
F4.9
sg6
VCVE-2014-0480
p570
sg8
F8.6
sg9
F5.8
sa(dp571
g5
F2.9
sg6
VCVE-2014-0481
p572
sg8
F8.6
sg9
F4.3
sag560
ag562
a(dp573
g5
F4.9
sg6
VCVE-2014-1418
p574
sg8
F10.0
sg9
F6.4
sa(dp575
g5
F2.9
sg6
VCVE-2014-3730
p576
sg8
F8.6
sg9
F4.3
sa(dp577
g5
F2.9
sg6
VCVE-2015-0219
p578
sg8
F10.0
sg9
F5.0
sa(dp579
g5
F2.9
sg6
VCVE-2015-0220
p580
sg8
F8.6
sg9
F4.3
sa(dp581
g5
F2.9
sg6
VCVE-2015-0221
p582
sg8
F10.0
sg9
F5.0
sa(dp583
g5
F2.9
sg6
VCVE-2015-0222
p584
sg8
F10.0
sg9
F5.0
sa(dp585
g5
F2.9
sg6
VCVE-2015-2316
p586
sg8
F10.0
sg9
F5.0
sa(dp587
g5
F2.9
sg6
VCVE-2015-2317
p588
sg8
F8.6
sg9
F4.3
sa(dp589
g5
F6.9
sg6
VCVE-2015-5143
p590
sg8
F10.0
sg9
F7.8
sa(dp591
g5
F2.9
sg6
VCVE-2015-5144
p592
sg8
F8.6
sg9
F4.3
sa(dp593
g5
F2.9
sg6
VCVE-2015-5963
p594
sg8
F10.0
sg9
F5.0
sa(dp595
g5
F2.9
sg6
VCVE-2015-5964
p596
sg8
F10.0
sg9
F5.0
saaa(lp597
(lp598
(dp599
g5
F2.9
sg6
VCVE-2010-5297
p600
sg8
F3.9
sg9
F2.1
saa(lp601
(dp602
g5
F6.4
sg6
VCVE-2010-5106
p603
sg8
F8.0
sg9
F6.5
sa(dp604
g5
F4.9
sg6
VCVE-2010-5296
p605
sg8
F6.8
sg9
F4.9
sag599
a(dp606
g5
F4.9
sg6
VCVE-2012-2402
p607
sg8
F8.0
sg9
F5.5
sa(dp608
g5
F2.9
sg6
VCVE-2012-4421
p609
sg8
F8.0
sg9
F4.0
sa(dp610
g5
F2.9
sg6
VCVE-2012-4422
p611
sg8
F6.8
sg9
F3.5
sa(dp612
g5
F2.9
sg6
VCVE-2013-2200
p613
sg8
F8.0
sg9
F4.0
sa(dp614
g5
F2.9
sg6
VCVE-2014-0165
p615
sg8
F8.0
sg9
F4.0
saa(lp616
g602
a(dp617
g5
F4.9
sg6
VCVE-2010-5293
p618
sg8
F8.6
sg9
F5.8
sa(dp619
g5
F2.9
sg6
VCVE-2010-5294
p620
sg8
F8.6
sg9
F4.3
sa(dp621
g5
F2.9
sg6
VCVE-2010-5295
p622
sg8
F8.6
sg9
F4.3
sag604
ag599
a(dp623
g5
F2.9
sg6
VCVE-2011-4898
p624
sg8
F10.0
sg9
F5.0
sa(dp625
g5
F6.4
sg6
VCVE-2011-4899
p626
sg8
F10.0
sg9
F7.5
sa(dp627
g5
F2.9
sg6
VCVE-2011-4956
p628
sg8
F8.6
sg9
F4.3
sa(dp629
g5
F2.9
sg6
VCVE-2011-4957
p630
sg8
F10.0
sg9
F5.0
sa(dp631
g5
F2.9
sg6
VCVE-2012-0782
p632
sg8
F8.6
sg9
F4.3
sa(dp633
g5
F2.9
sg6
VCVE-2012-0937
p634
sg8
F10.0
sg9
F5.0
sa(dp635
g5
F6.4
sg6
VCVE-2012-1936
p636
sg8
F8.6
sg9
F6.8
sa(dp637
g5
F10.0
sg6
VCVE-2012-2399
p638
sg8
F10.0
sg9
F10.0
sa(dp639
g5
F10.0
sg6
VCVE-2012-2400
p640
sg8
F10.0
sg9
F10.0
sa(dp641
g5
F2.9
sg6
VCVE-2012-2401
p642
sg8
F10.0
sg9
F5.0
sag606
a(dp643
g5
F2.9
sg6
VCVE-2012-2403
p644
sg8
F8.6
sg9
F4.3
sa(dp645
g5
F2.9
sg6
VCVE-2012-2404
p646
sg8
F8.6
sg9
F4.3
sa(dp647
g5
F6.4
sg6
VCVE-2012-3384
p648
sg8
F8.6
sg9
F6.8
sa(dp649
g5
F2.9
sg6
VCVE-2012-3385
p650
sg8
F10.0
sg9
F5.0
sag608
ag610
a(dp651
g5
F4.9
sg6
VCVE-2013-0235
p652
sg8
F10.0
sg9
F6.4
sa(dp653
g5
F2.9
sg6
VCVE-2013-0236
p654
sg8
F8.6
sg9
F4.3
sa(dp655
g5
F2.9
sg6
VCVE-2013-0237
p656
sg8
F8.6
sg9
F4.3
sa(dp657
g5
F2.9
sg6
VCVE-2013-2199
p658
sg8
F8.6
sg9
F4.3
sag612
a(dp659
g5
F2.9
sg6
VCVE-2013-2201
p660
sg8
F8.6
sg9
F4.3
sa(dp661
g5
F2.9
sg6
VCVE-2013-2202
p662
sg8
F8.6
sg9
F4.3
sa(dp663
g5
F2.9
sg6
VCVE-2013-2203
p664
sg8
F8.6
sg9
F4.3
sa(dp665
g5
F2.9
sg6
VCVE-2013-2204
p666
sg8
F8.6
sg9
F4.3
sa(dp667
g5
F2.9
sg6
VCVE-2013-2205
p668
sg8
F8.6
sg9
F4.3
sa(dp669
g5
F6.4
sg6
VCVE-2013-7233
p670
sg8
F8.6
sg9
F6.8
sag614
a(dp671
g5
F4.9
sg6
VCVE-2014-0166
p672
sg8
F10.0
sg9
F6.4
sa(dp673
g5
F2.9
sg6
VCVE-2018-5776
p674
sg8
F8.6
sg9
F4.3
saaa(lp675
(lp676
(dp677
g5
F6.4
sg6
VCVE-2011-3607
p678
sg8
F3.4
sg9
F4.4
sa(dp679
g5
F2.9
sg6
VCVE-2011-4415
p680
sg8
F1.9
sg9
F1.2
sa(dp681
g5
F6.4
sg6
VCVE-2012-0031
p682
sg8
F3.9
sg9
F4.6
sa(dp683
g5
F10.0
sg6
VCVE-2012-0883
p684
sg8
F3.4
sg9
F6.9
saa(lp685
g677
ag679
ag681
ag683
a(dp686
g5
F2.9
sg6
VCVE-2016-8612
p687
sg8
F6.5
sg9
F3.3
saa(lp688
(dp689
g5
F10.0
sg6
VCVE-2010-0425
p690
sg8
F10.0
sg9
F10.0
sa(dp691
g5
F2.9
sg6
VCVE-2011-0419
p692
sg8
F8.6
sg9
F4.3
sa(dp693
g5
F6.9
sg6
VCVE-2011-3192
p694
sg8
F10.0
sg9
F7.8
sa(dp695
g5
F2.9
sg6
VCVE-2011-3348
p696
sg8
F8.6
sg9
F4.3
sa(dp697
g5
F2.9
sg6
VCVE-2011-3368
p698
sg8
F10.0
sg9
F5.0
sag677
a(dp699
g5
F2.9
sg6
VCVE-2011-3639
p700
sg8
F8.6
sg9
F4.3
sa(dp701
g5
F2.9
sg6
VCVE-2011-4317
p702
sg8
F8.6
sg9
F4.3
sag679
ag681
ag683
a(dp703
g5
F6.4
sg6
VCVE-2013-2249
p704
sg8
F10.0
sg9
F7.5
sa(dp705
g5
F2.9
sg6
VCVE-2013-6438
p706
sg8
F10.0
sg9
F5.0
sa(dp707
g5
F2.9
sg6
VCVE-2014-0098
p708
sg8
F10.0
sg9
F5.0
sag686
aaa(lp709
(lp710
(dp711
g5
F2.9
sg6
VCVE-2012-0075
p712
sg8
F3.2
sg9
F1.7
sa(dp713
g5
F4.9
sg6
VCVE-2012-0114
p714
sg8
F2.7
sg9
F3.0
sa(dp715
g5
F2.9
sg6
VCVE-2012-0492
p716
sg8
F3.9
sg9
F2.1
sa(dp717
g5
F2.9
sg6
VCVE-2012-0493
p718
sg8
F3.9
sg9
F2.1
sa(dp719
g5
F2.9
sg6
VCVE-2012-0494
p720
sg8
F3.1
sg9
F1.7
sa(dp721
g5
F4.9
sg6
VCVE-2012-0496
p722
sg8
F5.5
sg9
F4.3
sa(dp723
g5
F6.4
sg6
VCVE-2012-2122
p724
sg8
F4.9
sg9
F5.1
sa(dp725
g5
F2.9
sg6
VCVE-2012-3160
p726
sg8
F3.9
sg9
F2.1
sa(dp727
g5
F9.2
sg6
VCVE-2013-0385
p728
sg8
F3.9
sg9
F6.6
sa(dp729
g5
F2.9
sg6
VCVE-2013-1502
p730
sg8
F2.7
sg9
F1.5
sa(dp731
g5
F2.9
sg6
VCVE-2013-1506
p732
sg8
F5.5
sg9
F2.8
sa(dp733
g5
F6.4
sg6
VCVE-2013-1523
p734
sg8
F3.9
sg9
F4.6
sa(dp735
g5
F4.9
sg6
VCVE-2013-2391
p736
sg8
F2.7
sg9
F3.0
sa(dp737
g5
F2.9
sg6
VCVE-2013-5908
p738
sg8
F4.9
sg9
F2.6
sa(dp739
g5
F2.9
sg6
VCVE-2014-0420
p740
sg8
F5.5
sg9
F2.8
sa(dp741
g5
F2.9
sg6
VCVE-2014-2431
p742
sg8
F4.9
sg9
F2.6
sa(dp743
g5
F2.9
sg6
VCVE-2014-2432
p744
sg8
F5.5
sg9
F2.8
sa(dp745
g5
F6.4
sg6
VCVE-2014-2440
p746
sg8
F4.9
sg9
F5.1
sa(dp747
g5
F2.9
sg6
VCVE-2014-4243
p748
sg8
F5.5
sg9
F2.8
sa(dp749
g5
F6.4
sg6
VCVE-2014-4274
p750
sg8
F2.7
sg9
F4.1
sa(dp751
g5
F2.9
sg6
VCVE-2014-6551
p752
sg8
F3.9
sg9
F2.1
sa(dp753
g5
F2.9
sg6
VCVE-2017-10268
p754
sg8
F2.7
sg9
F1.5
saa(lp755
g711
a(dp756
g5
F2.9
sg6
VCVE-2012-0112
p757
sg8
F6.8
sg9
F3.5
sa(dp758
g5
F4.9
sg6
VCVE-2012-0113
p759
sg8
F8.0
sg9
F5.5
sag713
a(dp760
g5
F2.9
sg6
VCVE-2012-0115
p761
sg8
F8.0
sg9
F4.0
sa(dp762
g5
F4.9
sg6
VCVE-2012-0116
p763
sg8
F6.8
sg9
F4.9
sa(dp764
g5
F2.9
sg6
VCVE-2012-0117
p765
sg8
F6.8
sg9
F3.5
sa(dp766
g5
F4.9
sg6
VCVE-2012-0118
p767
sg8
F6.8
sg9
F4.9
sa(dp768
g5
F2.9
sg6
VCVE-2012-0119
p769
sg8
F8.0
sg9
F4.0
sa(dp770
g5
F2.9
sg6
VCVE-2012-0120
p771
sg8
F8.0
sg9
F4.0
sa(dp772
g5
F2.9
sg6
VCVE-2012-0484
p773
sg8
F8.0
sg9
F4.0
sa(dp774
g5
F2.9
sg6
VCVE-2012-0485
p775
sg8
F8.0
sg9
F4.0
sa(dp776
g5
F2.9
sg6
VCVE-2012-0487
p777
sg8
F8.0
sg9
F4.0
sa(dp778
g5
F2.9
sg6
VCVE-2012-0488
p779
sg8
F8.0
sg9
F4.0
sa(dp780
g5
F2.9
sg6
VCVE-2012-0489
p781
sg8
F8.0
sg9
F4.0
sa(dp782
g5
F2.9
sg6
VCVE-2012-0490
p783
sg8
F8.0
sg9
F4.0
sa(dp784
g5
F2.9
sg6
VCVE-2012-0491
p785
sg8
F8.0
sg9
F4.0
sag715
ag717
ag719
a(dp786
g5
F2.9
sg6
VCVE-2012-0495
p787
sg8
F8.0
sg9
F4.0
sag721
a(dp788
g5
F2.9
sg6
VCVE-2012-0540
p789
sg8
F8.0
sg9
F4.0
sa(dp790
g5
F2.9
sg6
VCVE-2012-0572
p791
sg8
F8.0
sg9
F4.0
sa(dp792
g5
F2.9
sg6
VCVE-2012-0574
p793
sg8
F8.0
sg9
F4.0
sa(dp794
g5
F2.9
sg6
VCVE-2012-0578
p795
sg8
F8.0
sg9
F4.0
sa(dp796
g5
F2.9
sg6
VCVE-2012-0583
p797
sg8
F8.0
sg9
F4.0
sa(dp798
g5
F2.9
sg6
VCVE-2012-1688
p799
sg8
F8.0
sg9
F4.0
sa(dp800
g5
F2.9
sg6
VCVE-2012-1689
p801
sg8
F8.0
sg9
F4.0
sa(dp802
g5
F2.9
sg6
VCVE-2012-1690
p803
sg8
F8.0
sg9
F4.0
sa(dp804
g5
F2.9
sg6
VCVE-2012-1696
p805
sg8
F8.0
sg9
F4.0
sa(dp806
g5
F2.9
sg6
VCVE-2012-1697
p807
sg8
F8.0
sg9
F4.0
sa(dp808
g5
F6.9
sg6
VCVE-2012-1703
p809
sg8
F8.0
sg9
F6.8
sa(dp810
g5
F2.9
sg6
VCVE-2012-1705
p811
sg8
F8.0
sg9
F4.0
sa(dp812
g5
F2.9
sg6
VCVE-2012-1734
p813
sg8
F8.0
sg9
F4.0
sa(dp814
g5
F6.9
sg6
VCVE-2012-1735
p815
sg8
F8.0
sg9
F6.8
sa(dp816
g5
F2.9
sg6
VCVE-2012-1756
p817
sg8
F8.0
sg9
F4.0
sa(dp818
g5
F2.9
sg6
VCVE-2012-1757
p819
sg8
F8.0
sg9
F4.0
sa(dp820
g5
F2.9
sg6
VCVE-2012-2102
p821
sg8
F6.8
sg9
F3.5
sag723
a(dp822
g5
F2.9
sg6
VCVE-2012-2749
p823
sg8
F8.0
sg9
F4.0
sa(dp824
g5
F2.9
sg6
VCVE-2012-3144
p825
sg8
F8.0
sg9
F4.0
sa(dp826
g5
F2.9
sg6
VCVE-2012-3149
p827
sg8
F6.8
sg9
F3.5
sa(dp828
g5
F2.9
sg6
VCVE-2012-3150
p829
sg8
F8.0
sg9
F4.0
sa(dp830
g5
F2.9
sg6
VCVE-2012-3156
p831
sg8
F6.8
sg9
F3.5
sag725
a(dp832
g5
F10.0
sg6
VCVE-2012-3163
p833
sg8
F8.0
sg9
F9.0
sa(dp834
g5
F2.9
sg6
VCVE-2012-3166
p835
sg8
F8.0
sg9
F4.0
sa(dp836
g5
F2.9
sg6
VCVE-2012-3167
p837
sg8
F6.8
sg9
F3.5
sa(dp838
g5
F2.9
sg6
VCVE-2012-3173
p839
sg8
F8.0
sg9
F4.0
sa(dp840
g5
F6.9
sg6
VCVE-2012-3177
p841
sg8
F8.0
sg9
F6.8
sa(dp842
g5
F2.9
sg6
VCVE-2012-3180
p843
sg8
F8.0
sg9
F4.0
sa(dp844
g5
F2.9
sg6
VCVE-2012-3197
p845
sg8
F6.8
sg9
F3.5
sa(dp846
g5
F6.4
sg6
VCVE-2012-4414
p847
sg8
F8.0
sg9
F6.5
sa(dp848
g5
F6.9
sg6
VCVE-2012-5060
p849
sg8
F8.0
sg9
F6.8
sa(dp850
g5
F2.9
sg6
VCVE-2012-5096
p851
sg8
F6.8
sg9
F3.5
sa(dp852
g5
F6.4
sg6
VCVE-2012-5611
p853
sg8
F8.0
sg9
F6.5
sa(dp854
g5
F6.4
sg6
VCVE-2012-5612
p855
sg8
F8.0
sg9
F6.5
sa(dp856
g5
F6.4
sg6
VCVE-2012-5613
p857
sg8
F6.8
sg9
F6.0
sa(dp858
g5
F2.9
sg6
VCVE-2012-5614
p859
sg8
F8.0
sg9
F4.0
sa(dp860
g5
F2.9
sg6
VCVE-2013-0367
p861
sg8
F8.0
sg9
F4.0
sa(dp862
g5
F2.9
sg6
VCVE-2013-0368
p863
sg8
F8.0
sg9
F4.0
sa(dp864
g5
F2.9
sg6
VCVE-2013-0371
p865
sg8
F8.0
sg9
F4.0
sa(dp866
g5
F6.9
sg6
VCVE-2013-0384
p867
sg8
F8.0
sg9
F6.8
sag727
a(dp868
g5
F6.9
sg6
VCVE-2013-0386
p869
sg8
F8.0
sg9
F6.8
sa(dp870
g5
F6.9
sg6
VCVE-2013-0389
p871
sg8
F8.0
sg9
F6.8
sag729
ag731
a(dp872
g5
F2.9
sg6
VCVE-2013-1511
p873
sg8
F6.8
sg9
F3.5
sa(dp874
g5
F2.9
sg6
VCVE-2013-1512
p875
sg8
F8.0
sg9
F4.0
sa(dp876
g5
F6.4
sg6
VCVE-2013-1521
p877
sg8
F8.0
sg9
F6.5
sag733
a(dp878
g5
F2.9
sg6
VCVE-2013-1526
p879
sg8
F8.0
sg9
F4.0
sa(dp880
g5
F6.4
sg6
VCVE-2013-1531
p881
sg8
F6.8
sg9
F6.0
sa(dp882
g5
F2.9
sg6
VCVE-2013-1532
p883
sg8
F8.0
sg9
F4.0
sa(dp884
g5
F2.9
sg6
VCVE-2013-1544
p885
sg8
F8.0
sg9
F4.0
sa(dp886
g5
F6.4
sg6
VCVE-2013-1552
p887
sg8
F6.8
sg9
F6.0
sa(dp888
g5
F2.9
sg6
VCVE-2013-1555
p889
sg8
F8.0
sg9
F4.0
sa(dp890
g5
F6.4
sg6
VCVE-2013-2375
p891
sg8
F6.8
sg9
F6.0
sa(dp892
g5
F2.9
sg6
VCVE-2013-2376
p893
sg8
F8.0
sg9
F4.0
sa(dp894
g5
F6.4
sg6
VCVE-2013-2378
p895
sg8
F6.8
sg9
F6.0
sa(dp896
g5
F2.9
sg6
VCVE-2013-2381
p897
sg8
F6.8
sg9
F3.5
sa(dp898
g5
F2.9
sg6
VCVE-2013-2389
p899
sg8
F8.0
sg9
F4.0
sag735
a(dp900
g5
F2.9
sg6
VCVE-2013-2392
p901
sg8
F8.0
sg9
F4.0
sa(dp902
g5
F2.9
sg6
VCVE-2013-3783
p903
sg8
F8.0
sg9
F4.0
sa(dp904
g5
F2.9
sg6
VCVE-2013-3793
p905
sg8
F8.0
sg9
F4.0
sa(dp906
g5
F2.9
sg6
VCVE-2013-3794
p907
sg8
F8.0
sg9
F4.0
sa(dp908
g5
F2.9
sg6
VCVE-2013-3802
p909
sg8
F8.0
sg9
F4.0
sa(dp910
g5
F2.9
sg6
VCVE-2013-3804
p911
sg8
F8.0
sg9
F4.0
sa(dp912
g5
F2.9
sg6
VCVE-2013-3805
p913
sg8
F8.0
sg9
F4.0
sa(dp914
g5
F2.9
sg6
VCVE-2013-3808
p915
sg8
F8.0
sg9
F4.0
sa(dp916
g5
F2.9
sg6
VCVE-2013-3809
p917
sg8
F8.0
sg9
F4.0
sa(dp918
g5
F2.9
sg6
VCVE-2013-3812
p919
sg8
F6.8
sg9
F3.5
sa(dp920
g5
F2.9
sg6
VCVE-2013-3839
p921
sg8
F8.0
sg9
F4.0
sa(dp922
g5
F4.9
sg6
VCVE-2013-5807
p923
sg8
F6.8
sg9
F4.9
sa(dp924
g5
F2.9
sg6
VCVE-2013-5891
p925
sg8
F8.0
sg9
F4.0
sag737
a(dp926
g5
F2.9
sg6
VCVE-2014-0384
p927
sg8
F8.0
sg9
F4.0
sa(dp928
g5
F2.9
sg6
VCVE-2014-0386
p929
sg8
F8.0
sg9
F4.0
sa(dp930
g5
F2.9
sg6
VCVE-2014-0393
p931
sg8
F6.4
sg9
F3.3
sa(dp932
g5
F2.9
sg6
VCVE-2014-0401
p933
sg8
F8.0
sg9
F4.0
sa(dp934
g5
F2.9
sg6
VCVE-2014-0402
p935
sg8
F8.0
sg9
F4.0
sa(dp936
g5
F2.9
sg6
VCVE-2014-0412
p937
sg8
F8.0
sg9
F4.0
sag739
a(dp938
g5
F2.9
sg6
VCVE-2014-0437
p939
sg8
F6.8
sg9
F3.5
sa(dp940
g5
F2.9
sg6
VCVE-2014-2419
p941
sg8
F8.0
sg9
F4.0
sa(dp942
g5
F2.9
sg6
VCVE-2014-2430
p943
sg8
F6.8
sg9
F3.5
sag741
ag743
a(dp944
g5
F6.4
sg6
VCVE-2014-2436
p945
sg8
F6.8
sg9
F6.0
sa(dp946
g5
F2.9
sg6
VCVE-2014-2438
p947
sg8
F6.8
sg9
F3.5
sag745
a(dp948
g5
F2.9
sg6
VCVE-2014-2494
p949
sg8
F8.0
sg9
F4.0
sa(dp950
g5
F2.9
sg6
VCVE-2014-4207
p951
sg8
F8.0
sg9
F4.0
sag747
a(dp952
g5
F6.4
sg6
VCVE-2014-4258
p953
sg8
F8.0
sg9
F6.5
sa(dp954
g5
F4.9
sg6
VCVE-2014-4260
p955
sg8
F8.0
sg9
F5.5
sag749
a(dp956
g5
F2.9
sg6
VCVE-2014-6463
p957
sg8
F6.4
sg9
F3.3
sa(dp958
g5
F2.9
sg6
VCVE-2014-6464
p959
sg8
F8.0
sg9
F4.0
sa(dp960
g5
F6.9
sg6
VCVE-2014-6469
p961
sg8
F8.0
sg9
F6.8
sa(dp962
g5
F2.9
sg6
VCVE-2014-6484
p963
sg8
F8.0
sg9
F4.0
sa(dp964
g5
F2.9
sg6
VCVE-2014-6505
p965
sg8
F8.0
sg9
F4.0
sa(dp966
g5
F8.5
sg6
VCVE-2014-6507
p967
sg8
F8.0
sg9
F8.0
sa(dp968
g5
F2.9
sg6
VCVE-2014-6520
p969
sg8
F8.0
sg9
F4.0
sa(dp970
g5
F6.4
sg6
VCVE-2014-6530
p971
sg8
F8.0
sg9
F6.5
sag751
a(dp972
g5
F6.4
sg6
VCVE-2014-6555
p973
sg8
F8.0
sg9
F6.5
sag753
a(dp974
g5
F2.9
sg6
VCVE-2017-10378
p975
sg8
F8.0
sg9
F4.0
sa(dp976
g5
F2.9
sg6
VCVE-2017-10379
p977
sg8
F8.0
sg9
F4.0
sa(dp978
g5
F2.9
sg6
VCVE-2017-10384
p979
sg8
F8.0
sg9
F4.0
sa(dp980
g5
F7.8
sg6
VCVE-2018-2562
p981
sg8
F8.0
sg9
F7.5
sa(dp982
g5
F6.9
sg6
VCVE-2018-2622
p983
sg8
F8.0
sg9
F6.8
sa(dp984
g5
F6.9
sg6
VCVE-2018-2640
p985
sg8
F8.0
sg9
F6.8
sa(dp986
g5
F6.9
sg6
VCVE-2018-2665
p987
sg8
F8.0
sg9
F6.8
sa(dp988
g5
F6.9
sg6
VCVE-2018-2668
p989
sg8
F8.0
sg9
F6.8
saa(lp990
(dp991
g5
F2.9
sg6
VCVE-2011-2262
p992
sg8
F10.0
sg9
F5.0
sag711
ag756
ag758
ag713
ag760
ag762
ag764
ag766
ag768
ag770
ag772
ag774
a(dp993
g5
F2.9
sg6
VCVE-2012-0486
p994
sg8
F10.0
sg9
F5.0
sag776
ag778
ag780
ag782
ag784
ag715
ag717
ag719
ag786
ag721
ag788
a(dp995
g5
F6.4
sg6
VCVE-2012-0553
p996
sg8
F10.0
sg9
F7.5
sag790
ag792
ag794
ag796
a(dp997
g5
F6.4
sg6
VCVE-2012-0882
p998
sg8
F10.0
sg9
F7.5
sag798
ag800
ag802
ag804
ag806
a(dp999
g5
F2.9
sg6
VCVE-2012-1702
p1000
sg8
F10.0
sg9
F5.0
sag808
ag810
ag812
ag814
ag816
ag818
ag820
ag723
ag822
a(dp1001
g5
F10.0
sg6
VCVE-2012-2750
p1002
sg8
F10.0
sg9
F10.0
sag824
a(dp1003
g5
F4.9
sg6
VCVE-2012-3147
p1004
sg8
F10.0
sg9
F6.4
sag826
ag828
ag830
a(dp1005
g5
F6.4
sg6
VCVE-2012-3158
p1006
sg8
F10.0
sg9
F7.5
sag725
ag832
ag834
ag836
ag838
ag840
ag842
ag844
ag846
ag848
ag850
ag852
ag854
ag856
ag858
a(dp1007
g5
F2.9
sg6
VCVE-2012-5615
p1008
sg8
F10.0
sg9
F5.0
sag860
ag862
ag864
a(dp1009
g5
F2.9
sg6
VCVE-2013-0383
p1010
sg8
F8.6
sg9
F4.3
sag866
ag727
ag868
ag870
a(dp1011
g5
F6.4
sg6
VCVE-2013-1492
p1012
sg8
F10.0
sg9
F7.5
sag729
ag731
ag872
ag874
ag876
ag733
ag878
ag880
ag882
ag884
ag886
ag888
ag890
ag892
ag894
ag896
ag898
ag735
ag900
ag902
ag904
ag906
a(dp1013
g5
F2.9
sg6
VCVE-2013-3801
p1014
sg8
F10.0
sg9
F5.0
sag908
ag910
ag912
ag914
ag916
ag918
ag920
ag922
ag924
ag737
a(dp1015
g5
F6.4
sg6
VCVE-2014-0001
p1016
sg8
F10.0
sg9
F7.5
sag926
ag928
ag930
ag932
ag934
ag936
ag739
ag938
ag940
ag942
ag741
ag743
ag944
ag946
ag745
ag948
ag950
ag747
ag952
ag954
ag749
ag956
ag958
ag960
a(dp1017
g5
F2.9
sg6
VCVE-2014-6478
p1018
sg8
F8.6
sg9
F4.3
sag962
a(dp1019
g5
F6.4
sg6
VCVE-2014-6491
p1020
sg8
F10.0
sg9
F7.5
sa(dp1021
g5
F2.9
sg6
VCVE-2014-6494
p1022
sg8
F8.6
sg9
F4.3
sa(dp1023
g5
F2.9
sg6
VCVE-2014-6495
p1024
sg8
F8.6
sg9
F4.3
sa(dp1025
g5
F2.9
sg6
VCVE-2014-6496
p1026
sg8
F8.6
sg9
F4.3
sa(dp1027
g5
F6.4
sg6
VCVE-2014-6500
p1028
sg8
F10.0
sg9
F7.5
sag964
ag966
ag968
ag970
ag751
ag972
a(dp1029
g5
F2.9
sg6
VCVE-2014-6559
p1030
sg8
F8.6
sg9
F4.3
sag753
ag974
ag976
ag978
ag980
ag982
ag984
ag986
ag988
aaa(lp1031
(lp1032
(dp1033
g5
F10.0
sg6
VCVE-2015-7539
p1034
sg8
F4.9
sg9
F7.6
saa(lp1035
(dp1036
g5
F6.4
sg6
VCVE-2015-5323
p1037
sg8
F8.0
sg9
F6.5
sa(dp1038
g5
F2.9
sg6
VCVE-2015-7536
p1039
sg8
F6.8
sg9
F3.5
sag1033
a(dp1040
g5
F2.9
sg6
VCVE-2018-6356
p1041
sg8
F8.0
sg9
F4.0
saa(lp1042
(dp1043
g5
F2.9
sg6
VCVE-2015-5317
p1044
sg8
F10.0
sg9
F5.0
sa(dp1045
g5
F6.4
sg6
VCVE-2015-5318
p1046
sg8
F8.6
sg9
F6.8
sa(dp1047
g5
F2.9
sg6
VCVE-2015-5319
p1048
sg8
F10.0
sg9
F5.0
sa(dp1049
g5
F2.9
sg6
VCVE-2015-5320
p1050
sg8
F10.0
sg9
F5.0
sa(dp1051
g5
F2.9
sg6
VCVE-2015-5321
p1052
sg8
F10.0
sg9
F5.0
sa(dp1053
g5
F2.9
sg6
VCVE-2015-5322
p1054
sg8
F10.0
sg9
F5.0
sag1036
a(dp1055
g5
F2.9
sg6
VCVE-2015-5324
p1056
sg8
F10.0
sg9
F5.0
sa(dp1057
g5
F6.4
sg6
VCVE-2015-5325
p1058
sg8
F10.0
sg9
F7.5
sa(dp1059
g5
F2.9
sg6
VCVE-2015-5326
p1060
sg8
F8.6
sg9
F4.3
sag1038
a(dp1061
g5
F6.4
sg6
VCVE-2015-7537
p1062
sg8
F8.6
sg9
F6.8
sa(dp1063
g5
F6.4
sg6
VCVE-2015-7538
p1064
sg8
F8.6
sg9
F6.8
sag1033
a(dp1065
g5
F6.4
sg6
VCVE-2015-8103
p1066
sg8
F10.0
sg9
F7.5
sag1040
aaa(lp1067
(lp1068
a(lp1069
a(lp1070
(dp1071
g5
F6.4
sg6
VCVE-2015-6527
p1072
sg8
F10.0
sg9
F7.5
sa(dp1073
g5
F6.4
sg6
VCVE-2015-8616
p1074
sg8
F10.0
sg9
F7.5
sa(dp1075
g5
F6.4
sg6
VCVE-2015-8865
p1076
sg8
F10.0
sg9
F7.5
sa(dp1077
g5
F10.0
sg6
VCVE-2015-8880
p1078
sg8
F10.0
sg9
F10.0
sa(dp1079
g5
F6.4
sg6
VCVE-2015-8994
p1080
sg8
F8.6
sg9
F6.8
sa(dp1081
g5
F2.9
sg6
VCVE-2016-10158
p1082
sg8
F10.0
sg9
F5.0
sa(dp1083
g5
F2.9
sg6
VCVE-2016-10159
p1084
sg8
F10.0
sg9
F5.0
sa(dp1085
g5
F6.4
sg6
VCVE-2016-10160
p1086
sg8
F10.0
sg9
F7.5
sa(dp1087
g5
F2.9
sg6
VCVE-2016-10161
p1088
sg8
F10.0
sg9
F5.0
sa(dp1089
g5
F2.9
sg6
VCVE-2016-10162
p1090
sg8
F10.0
sg9
F5.0
sa(dp1091
g5
F2.9
sg6
VCVE-2016-10397
p1092
sg8
F10.0
sg9
F5.0
sa(dp1093
g5
F2.9
sg6
VCVE-2016-10712
p1094
sg8
F10.0
sg9
F5.0
sa(dp1095
g5
F4.9
sg6
VCVE-2016-1903
p1096
sg8
F10.0
sg9
F6.4
sa(dp1097
g5
F6.4
sg6
VCVE-2016-1904
p1098
sg8
F10.0
sg9
F7.5
sa(dp1099
g5
F10.0
sg6
VCVE-2016-2554
p1100
sg8
F10.0
sg9
F10.0
sa(dp1101
g5
F6.4
sg6
VCVE-2016-3132
p1102
sg8
F10.0
sg9
F7.5
sa(dp1103
g5
F4.9
sg6
VCVE-2016-3185
p1104
sg8
F10.0
sg9
F6.4
sa(dp1105
g5
F2.9
sg6
VCVE-2016-4070
p1106
sg8
F10.0
sg9
F5.0
sa(dp1107
g5
F6.4
sg6
VCVE-2016-4071
p1108
sg8
F10.0
sg9
F7.5
sa(dp1109
g5
F6.4
sg6
VCVE-2016-4072
p1110
sg8
F10.0
sg9
F7.5
sa(dp1111
g5
F6.4
sg6
VCVE-2016-4073
p1112
sg8
F10.0
sg9
F7.5
sa(dp1113
g5
F8.5
sg6
VCVE-2016-4342
p1114
sg8
F8.6
sg9
F8.3
sa(dp1115
g5
F6.4
sg6
VCVE-2016-4343
p1116
sg8
F8.6
sg9
F6.8
sa(dp1117
g5
F6.4
sg6
VCVE-2016-4537
p1118
sg8
F10.0
sg9
F7.5
sa(dp1119
g5
F6.4
sg6
VCVE-2016-4538
p1120
sg8
F10.0
sg9
F7.5
sa(dp1121
g5
F6.4
sg6
VCVE-2016-4539
p1122
sg8
F10.0
sg9
F7.5
sa(dp1123
g5
F6.4
sg6
VCVE-2016-4540
p1124
sg8
F10.0
sg9
F7.5
sa(dp1125
g5
F6.4
sg6
VCVE-2016-4541
p1126
sg8
F10.0
sg9
F7.5
sa(dp1127
g5
F6.4
sg6
VCVE-2016-4542
p1128
sg8
F10.0
sg9
F7.5
sa(dp1129
g5
F6.4
sg6
VCVE-2016-4543
p1130
sg8
F10.0
sg9
F7.5
sa(dp1131
g5
F6.4
sg6
VCVE-2016-4544
p1132
sg8
F10.0
sg9
F7.5
sa(dp1133
g5
F6.4
sg6
VCVE-2016-5093
p1134
sg8
F10.0
sg9
F7.5
sa(dp1135
g5
F4.9
sg6
VCVE-2016-5114
p1136
sg8
F10.0
sg9
F6.4
sa(dp1137
g5
F6.4
sg6
VCVE-2016-5399
p1138
sg8
F8.6
sg9
F6.8
sa(dp1139
g5
F6.4
sg6
VCVE-2016-5768
p1140
sg8
F10.0
sg9
F7.5
sa(dp1141
g5
F6.4
sg6
VCVE-2016-5769
p1142
sg8
F10.0
sg9
F7.5
sa(dp1143
g5
F6.4
sg6
VCVE-2016-5772
p1144
sg8
F10.0
sg9
F7.5
sa(dp1145
g5
F6.4
sg6
VCVE-2016-5773
p1146
sg8
F10.0
sg9
F7.5
sa(dp1147
g5
F6.4
sg6
VCVE-2016-6289
p1148
sg8
F8.6
sg9
F6.8
sa(dp1149
g5
F6.4
sg6
VCVE-2016-6290
p1150
sg8
F10.0
sg9
F7.5
sa(dp1151
g5
F6.4
sg6
VCVE-2016-6291
p1152
sg8
F10.0
sg9
F7.5
sa(dp1153
g5
F2.9
sg6
VCVE-2016-6292
p1154
sg8
F8.6
sg9
F4.3
sa(dp1155
g5
F6.4
sg6
VCVE-2016-6294
p1156
sg8
F10.0
sg9
F7.5
sa(dp1157
g5
F6.4
sg6
VCVE-2016-6295
p1158
sg8
F10.0
sg9
F7.5
sa(dp1159
g5
F6.4
sg6
VCVE-2016-6296
p1160
sg8
F10.0
sg9
F7.5
sa(dp1161
g5
F6.4
sg6
VCVE-2016-6297
p1162
sg8
F8.6
sg9
F6.8
sa(dp1163
g5
F6.4
sg6
VCVE-2016-7124
p1164
sg8
F10.0
sg9
F7.5
sa(dp1165
g5
F2.9
sg6
VCVE-2016-7125
p1166
sg8
F10.0
sg9
F5.0
sa(dp1167
g5
F6.4
sg6
VCVE-2016-7126
p1168
sg8
F10.0
sg9
F7.5
sa(dp1169
g5
F6.4
sg6
VCVE-2016-7127
p1170
sg8
F10.0
sg9
F7.5
sa(dp1171
g5
F2.9
sg6
VCVE-2016-7128
p1172
sg8
F10.0
sg9
F5.0
sa(dp1173
g5
F6.4
sg6
VCVE-2016-7129
p1174
sg8
F10.0
sg9
F7.5
sa(dp1175
g5
F2.9
sg6
VCVE-2016-7130
p1176
sg8
F10.0
sg9
F5.0
sa(dp1177
g5
F2.9
sg6
VCVE-2016-7131
p1178
sg8
F10.0
sg9
F5.0
sa(dp1179
g5
F2.9
sg6
VCVE-2016-7132
p1180
sg8
F10.0
sg9
F5.0
sa(dp1181
g5
F6.4
sg6
VCVE-2016-7133
p1182
sg8
F8.6
sg9
F6.8
sa(dp1183
g5
F6.4
sg6
VCVE-2016-7134
p1184
sg8
F10.0
sg9
F7.5
sa(dp1185
g5
F6.4
sg6
VCVE-2016-7412
p1186
sg8
F8.6
sg9
F6.8
sa(dp1187
g5
F6.4
sg6
VCVE-2016-7413
p1188
sg8
F10.0
sg9
F7.5
sa(dp1189
g5
F6.4
sg6
VCVE-2016-7414
p1190
sg8
F10.0
sg9
F7.5
sa(dp1191
g5
F2.9
sg6
VCVE-2016-7416
p1192
sg8
F10.0
sg9
F5.0
sa(dp1193
g5
F6.4
sg6
VCVE-2016-7417
p1194
sg8
F10.0
sg9
F7.5
sa(dp1195
g5
F2.9
sg6
VCVE-2016-7418
p1196
sg8
F10.0
sg9
F5.0
sa(dp1197
g5
F2.9
sg6
VCVE-2016-7478
p1198
sg8
F10.0
sg9
F5.0
sa(dp1199
g5
F6.4
sg6
VCVE-2016-7479
p1200
sg8
F10.0
sg9
F7.5
sa(dp1201
g5
F6.4
sg6
VCVE-2016-9137
p1202
sg8
F10.0
sg9
F7.5
sa(dp1203
g5
F6.4
sg6
VCVE-2016-9138
p1204
sg8
F10.0
sg9
F7.5
sa(dp1205
g5
F2.9
sg6
VCVE-2016-9934
p1206
sg8
F10.0
sg9
F5.0
sa(dp1207
g5
F6.4
sg6
VCVE-2016-9935
p1208
sg8
F10.0
sg9
F7.5
sa(dp1209
g5
F6.4
sg6
VCVE-2016-9936
p1210
sg8
F10.0
sg9
F7.5
sa(dp1211
g5
F6.9
sg6
VCVE-2017-11142
p1212
sg8
F10.0
sg9
F7.8
sa(dp1213
g5
F2.9
sg6
VCVE-2017-11144
p1214
sg8
F10.0
sg9
F5.0
sa(dp1215
g5
F2.9
sg6
VCVE-2017-11145
p1216
sg8
F10.0
sg9
F5.0
sa(dp1217
g5
F4.9
sg6
VCVE-2017-11147
p1218
sg8
F10.0
sg9
F6.4
sa(dp1219
g5
F6.4
sg6
VCVE-2017-11362
p1220
sg8
F10.0
sg9
F7.5
sa(dp1221
g5
F6.4
sg6
VCVE-2017-11628
p1222
sg8
F8.6
sg9
F6.8
sa(dp1223
g5
F6.4
sg6
VCVE-2017-12932
p1224
sg8
F10.0
sg9
F7.5
sa(dp1225
g5
F6.4
sg6
VCVE-2017-12933
p1226
sg8
F10.0
sg9
F7.5
sa(dp1227
g5
F2.9
sg6
VCVE-2017-12934
p1228
sg8
F10.0
sg9
F5.0
sa(dp1229
g5
F2.9
sg6
VCVE-2017-16642
p1230
sg8
F10.0
sg9
F5.0
sa(dp1231
g5
F6.4
sg6
VCVE-2017-5340
p1232
sg8
F10.0
sg9
F7.5
sa(dp1233
g5
F2.9
sg6
VCVE-2017-7890
p1234
sg8
F8.6
sg9
F4.3
sa(dp1235
g5
F2.9
sg6
VCVE-2018-5711
p1236
sg8
F8.6
sg9
F4.3
sa(dp1237
g5
F2.9
sg6
VCVE-2018-5712
p1238
sg8
F8.6
sg9
F4.3
sa(dp1239
g5
F6.4
sg6
VCVE-2018-7584
p1240
sg8
F10.0
sg9
F7.5
saaa(lp1241
(lp1242
(dp1243
g5
F2.9
sg6
VCVE-2013-0179
p1244
sg8
F3.2
sg9
F1.8
sa(dp1245
g5
F2.9
sg6
VCVE-2013-7290
p1246
sg8
F3.2
sg9
F1.8
sa(dp1247
g5
F2.9
sg6
VCVE-2013-7291
p1248
sg8
F3.2
sg9
F1.8
saa(lp1249
g1243
a(dp1250
g5
F4.9
sg6
VCVE-2013-7239
p1251
sg8
F6.5
sg9
F4.8
sag1245
ag1247
aa(lp1252
g1243
ag1250
ag1245
ag1247
aaa.